target datalayout = "e-m:e-p270:32:32-p271:32:32-p272:64:64-i64:64-i128:128-f80:128-n8:16:32:64-S128"
target triple = "x86_64-pc-linux-gnu"

%struct.combine_diff_path = type { ptr, ptr, i32, %struct.object_id, [0 x %struct.combine_diff_parent] }
%struct.object_id = type { [32 x i8], i32 }
%struct.combine_diff_parent = type { i8, i32, %struct.object_id, ptr }

@.str.46 = private unnamed_addr constant [27 x i8] c"size_t overflow: %lu * %lu\00", align 1
@.str.47 = private unnamed_addr constant [27 x i8] c"size_t overflow: %lu + %lu\00", align 1

; Function Attrs: inlinehint nounwind uwtable
define internal void @oidcpy(ptr noundef %0, ptr noundef %1) #5 {
  %3 = alloca ptr, align 8
  %4 = alloca ptr, align 8
  store ptr %0, ptr %3, align 8, !tbaa !146
  store ptr %1, ptr %4, align 8, !tbaa !146
  %5 = load ptr, ptr %3, align 8, !tbaa !146
  %6 = getelementptr inbounds nuw %struct.object_id, ptr %5, i32 0, i32 0
  %7 = getelementptr inbounds [32 x i8], ptr %6, i64 0, i64 0
  %8 = load ptr, ptr %4, align 8, !tbaa !146
  %9 = getelementptr inbounds nuw %struct.object_id, ptr %8, i32 0, i32 0
  %10 = getelementptr inbounds [32 x i8], ptr %9, i64 0, i64 0
  call void @llvm.memcpy.p0.p0.i64(ptr align 4 %7, ptr align 4 %10, i64 32, i1 false)
  %11 = load ptr, ptr %4, align 8, !tbaa !146
  %12 = getelementptr inbounds nuw %struct.object_id, ptr %11, i32 0, i32 1
  %13 = load i32, ptr %12, align 4, !tbaa !209
  %14 = load ptr, ptr %3, align 8, !tbaa !146
  %15 = getelementptr inbounds nuw %struct.object_id, ptr %14, i32 0, i32 1
  store i32 %13, ptr %15, align 4, !tbaa !209
  ret void
}

; Function Attrs: inlinehint nounwind uwtable
define internal i64 @st_add(i64 noundef %0, i64 noundef %1) #5 {
  %3 = alloca i64, align 8
  %4 = alloca i64, align 8
  store i64 %0, ptr %3, align 8, !tbaa !84
  store i64 %1, ptr %4, align 8, !tbaa !84
  %5 = load i64, ptr %4, align 8, !tbaa !84
  %6 = load i64, ptr %3, align 8, !tbaa !84
  %7 = sub i64 -1, %6
  %8 = icmp ugt i64 %5, %7
  br i1 %8, label %9, label %12

9:                                                ; preds = %2
  %10 = load i64, ptr %3, align 8, !tbaa !84
  %11 = load i64, ptr %4, align 8, !tbaa !84
  call void (ptr, ...) @die(ptr noundef @.str.47, i64 noundef %10, i64 noundef %11) #10
  unreachable

12:                                               ; preds = %2
  %13 = load i64, ptr %3, align 8, !tbaa !84
  %14 = load i64, ptr %4, align 8, !tbaa !84
  %15 = add i64 %13, %14
  ret i64 %15
}

; Function Attrs: inlinehint nounwind uwtable
define internal i64 @st_mult(i64 noundef %0, i64 noundef %1) #5 {
  %3 = alloca i64, align 8
  %4 = alloca i64, align 8
  store i64 %0, ptr %3, align 8, !tbaa !84
  store i64 %1, ptr %4, align 8, !tbaa !84
  %5 = load i64, ptr %3, align 8, !tbaa !84
  %6 = icmp ne i64 %5, 0
  br i1 %6, label %7, label %15

7:                                                ; preds = %2
  %8 = load i64, ptr %4, align 8, !tbaa !84
  %9 = load i64, ptr %3, align 8, !tbaa !84
  %10 = udiv i64 -1, %9
  %11 = icmp ugt i64 %8, %10
  br i1 %11, label %12, label %15

12:                                               ; preds = %7
  %13 = load i64, ptr %3, align 8, !tbaa !84
  %14 = load i64, ptr %4, align 8, !tbaa !84
  call void (ptr, ...) @die(ptr noundef @.str.46, i64 noundef %13, i64 noundef %14) #10
  unreachable

15:                                               ; preds = %7, %2
  %16 = load i64, ptr %3, align 8, !tbaa !84
  %17 = load i64, ptr %4, align 8, !tbaa !84
  %18 = mul i64 %16, %17
  ret i64 %18
}

; Function Attrs: nounwind uwtable
define dso_local ptr @combine_diff_path_new(ptr noundef %0, i64 noundef %1, i32 noundef %2, ptr noundef %3, i64 noundef %4) #0 {
  %6 = alloca ptr, align 8
  %7 = alloca i64, align 8
  %8 = alloca i32, align 4
  %9 = alloca ptr, align 8
  %10 = alloca i64, align 8
  %11 = alloca ptr, align 8
  %12 = alloca i64, align 8
  store ptr %0, ptr %6, align 8, !tbaa !29
  store i64 %1, ptr %7, align 8, !tbaa !84
  store i32 %2, ptr %8, align 4, !tbaa !9
  store ptr %3, ptr %9, align 8, !tbaa !146
  store i64 %4, ptr %10, align 8, !tbaa !84
  call void @llvm.lifetime.start.p0(i64 8, ptr %11) #9
  call void @llvm.lifetime.start.p0(i64 8, ptr %12) #9
  %13 = load i64, ptr %10, align 8, !tbaa !84
  %14 = call i64 @st_mult(i64 noundef 56, i64 noundef %13)
  store i64 %14, ptr %12, align 8, !tbaa !84
  %15 = load i64, ptr %7, align 8, !tbaa !84
  %16 = call i64 @st_add(i64 noundef 56, i64 noundef %15)
  %17 = call i64 @st_add(i64 noundef %16, i64 noundef 1)
  %18 = load i64, ptr %12, align 8, !tbaa !84
  %19 = call i64 @st_add(i64 noundef %17, i64 noundef %18)
  %20 = call ptr @xmalloc(i64 noundef %19)
  store ptr %20, ptr %11, align 8, !tbaa !4
  %21 = load ptr, ptr %11, align 8, !tbaa !4
  %22 = getelementptr inbounds nuw %struct.combine_diff_path, ptr %21, i32 0, i32 4
  %23 = load i64, ptr %10, align 8, !tbaa !84
  %24 = getelementptr inbounds nuw [0 x %struct.combine_diff_parent], ptr %22, i64 0, i64 %23
  %25 = load ptr, ptr %11, align 8, !tbaa !4
  %26 = getelementptr inbounds nuw %struct.combine_diff_path, ptr %25, i32 0, i32 1
  store ptr %24, ptr %26, align 8, !tbaa !29
  %27 = load ptr, ptr %11, align 8, !tbaa !4
  %28 = getelementptr inbounds nuw %struct.combine_diff_path, ptr %27, i32 0, i32 1
  %29 = load ptr, ptr %28, align 8, !tbaa !29
  %30 = load ptr, ptr %6, align 8, !tbaa !29
  %31 = load i64, ptr %7, align 8, !tbaa !84
  call void @llvm.memcpy.p0.p0.i64(ptr align 1 %29, ptr align 1 %30, i64 %31, i1 false)
  %32 = load ptr, ptr %11, align 8, !tbaa !4
  %33 = getelementptr inbounds nuw %struct.combine_diff_path, ptr %32, i32 0, i32 1
  %34 = load ptr, ptr %33, align 8, !tbaa !29
  %35 = load i64, ptr %7, align 8, !tbaa !84
  %36 = getelementptr inbounds nuw i8, ptr %34, i64 %35
  store i8 0, ptr %36, align 1, !tbaa !122
  %37 = load ptr, ptr %11, align 8, !tbaa !4
  %38 = getelementptr inbounds nuw %struct.combine_diff_path, ptr %37, i32 0, i32 0
  store ptr null, ptr %38, align 8, !tbaa !4
  %39 = load i32, ptr %8, align 4, !tbaa !9
  %40 = load ptr, ptr %11, align 8, !tbaa !4
  %41 = getelementptr inbounds nuw %struct.combine_diff_path, ptr %40, i32 0, i32 2
  store i32 %39, ptr %41, align 8, !tbaa !9
  %42 = load ptr, ptr %11, align 8, !tbaa !4
  %43 = getelementptr inbounds nuw %struct.combine_diff_path, ptr %42, i32 0, i32 3
  %44 = load ptr, ptr %9, align 8, !tbaa !146
  call void @oidcpy(ptr noundef %43, ptr noundef %44)
  %45 = load ptr, ptr %11, align 8, !tbaa !4
  %46 = getelementptr inbounds nuw %struct.combine_diff_path, ptr %45, i32 0, i32 4
  %47 = getelementptr inbounds [0 x %struct.combine_diff_parent], ptr %46, i64 0, i64 0
  %48 = load i64, ptr %12, align 8, !tbaa !84
  call void @llvm.memset.p0.i64(ptr align 8 %47, i8 0, i64 %48, i1 false)
  %49 = load ptr, ptr %11, align 8, !tbaa !4
  call void @llvm.lifetime.end.p0(i64 8, ptr %12) #9
  call void @llvm.lifetime.end.p0(i64 8, ptr %11) #9
  ret ptr %49
}