; Function Attrs: nounwind uwtable
define dso_local noundef ptr @combine_diff_path_new(ptr noundef readonly captures(none) %0, i64 noundef %1, i32 noundef %2, ptr noundef readonly captures(none) %3, i64 noundef %4) local_unnamed_addr #0 {
  %mul.ov.i = icmp ugt i64 %4, 329406144173384850
  br i1 %mul.ov.i, label %6, label %st_mult.exit

6:                                                ; preds = %5
  tail call void (ptr, ...) @die(ptr noundef nonnull @.str.46, i64 noundef 56, i64 noundef %4) #16
  unreachable

st_mult.exit:                                     ; preds = %5
  %7 = mul nuw i64 %4, 56
  %8 = icmp ugt i64 %1, -57
  br i1 %8, label %9, label %st_add.exit

9:                                                ; preds = %st_mult.exit
  tail call void (ptr, ...) @die(ptr noundef nonnull @.str.47, i64 noundef 56, i64 noundef %1) #16
  unreachable

st_add.exit:                                      ; preds = %st_mult.exit
  %10 = icmp eq i64 %1, -57
  br i1 %10, label %11, label %st_add.exit18

11:                                               ; preds = %st_add.exit
  tail call void (ptr, ...) @die(ptr noundef nonnull @.str.47, i64 noundef -1, i64 noundef 1) #16
  unreachable

st_add.exit18:                                    ; preds = %st_add.exit
  %12 = add nuw i64 %1, 57
  %13 = sub nuw i64 -58, %1
  %14 = icmp ugt i64 %7, %13
  br i1 %14, label %15, label %st_add.exit19

15:                                               ; preds = %st_add.exit18
  tail call void (ptr, ...) @die(ptr noundef nonnull @.str.47, i64 noundef %12, i64 noundef %7) #16
  unreachable

st_add.exit19:                                    ; preds = %st_add.exit18
  %16 = add i64 %7, %12
  %17 = tail call ptr @xmalloc(i64 noundef %16) #15
  %18 = getelementptr inbounds nuw i8, ptr %17, i64 56
  %19 = getelementptr inbounds nuw [0 x %struct.combine_diff_parent], ptr %18, i64 0, i64 %4
  %20 = getelementptr inbounds nuw i8, ptr %17, i64 8
  store ptr %19, ptr %20, align 8, !tbaa !73
  tail call void @llvm.memcpy.p0.p0.i64(ptr nonnull align 1 %19, ptr align 1 %0, i64 %1, i1 false)
  %21 = getelementptr inbounds nuw i8, ptr %19, i64 %1
  store i8 0, ptr %21, align 1, !tbaa !112
  store ptr null, ptr %17, align 8, !tbaa !212
  %22 = getelementptr inbounds nuw i8, ptr %17, i64 16
  store i32 %2, ptr %22, align 8, !tbaa !67
  %23 = getelementptr inbounds nuw i8, ptr %17, i64 20
  tail call void @llvm.memcpy.p0.p0.i64(ptr noundef nonnull align 4 dereferenceable(32) %23, ptr noundef nonnull readonly align 4 dereferenceable(32) %3, i64 32, i1 false)
  %24 = getelementptr inbounds nuw i8, ptr %3, i64 32
  %25 = load i32, ptr %24, align 4, !tbaa !229
  %26 = getelementptr inbounds nuw i8, ptr %17, i64 52
  store i32 %25, ptr %26, align 4, !tbaa !229
  tail call void @llvm.memset.p0.i64(ptr nonnull align 8 %18, i8 0, i64 %7, i1 false)
  ret ptr %17
}